target datalayout = "e-m:e-p270:32:32-p271:32:32-p272:64:64-i64:64-i128:128-f80:128-n8:16:32:64-S128"
target triple = "x86_64-pc-linux-gnu"

%struct.dh_gen_ctx = type { ptr, ptr, i32, i32, i64, i64, ptr, i64, i32, i32, i32, i32, i32, i32, ptr, ptr, ptr, ptr, i32 }
%struct.ossl_param_st = type { ptr, i32, ptr, i64, i64 }

@.str = private unnamed_addr constant [56 x i8] c"../openssl/providers/implementations/keymgmt/dh_kmgmt.c\00", align 1
@.str.9 = private unnamed_addr constant [5 x i8] c"type\00", align 1
@__func__.dh_gen_common_set_params = private unnamed_addr constant [25 x i8] c"dh_gen_common_set_params\00", align 1
@.str.10 = private unnamed_addr constant [6 x i8] c"group\00", align 1
@.str.11 = private unnamed_addr constant [6 x i8] c"pbits\00", align 1
@.str.12 = private unnamed_addr constant [9 x i8] c"priv_len\00", align 1
@.str.13 = private unnamed_addr constant [8 x i8] c"default\00", align 1

; Function Attrs: nounwind uwtable
define internal i32 @dh_gen_type_name2id_w_default(ptr noundef %0, i32 noundef %1) #0 {
  %3 = alloca i32, align 4
  %4 = alloca ptr, align 8
  %5 = alloca i32, align 4
  store ptr %0, ptr %4, align 8, !tbaa !59
  store i32 %1, ptr %5, align 4, !tbaa !9
  %6 = load ptr, ptr %4, align 8, !tbaa !59
  %7 = call i32 @strcmp(ptr noundef %6, ptr noundef @.str.13) #9
  %8 = icmp eq i32 %7, 0
  br i1 %8, label %9, label %14

9:                                                ; preds = %2
  %10 = load i32, ptr %5, align 4, !tbaa !9
  %11 = icmp eq i32 %10, 4096
  br i1 %11, label %12, label %13

12:                                               ; preds = %9
  store i32 1, ptr %3, align 4
  br label %18

13:                                               ; preds = %9
  store i32 0, ptr %3, align 4
  br label %18

14:                                               ; preds = %2
  %15 = load ptr, ptr %4, align 8, !tbaa !59
  %16 = load i32, ptr %5, align 4, !tbaa !9
  %17 = call i32 @ossl_dh_gen_type_name2id(ptr noundef %15, i32 noundef %16)
  store i32 %17, ptr %3, align 4
  br label %18

18:                                               ; preds = %14, %13, %12
  %19 = load i32, ptr %3, align 4
  ret i32 %19
}

; Function Attrs: inlinehint nounwind uwtable
define internal i32 @ossl_param_is_empty(ptr noundef %0) #1 {
  %2 = alloca ptr, align 8
  store ptr %0, ptr %2, align 8, !tbaa !11
  %3 = load ptr, ptr %2, align 8, !tbaa !11
  %4 = icmp eq ptr %3, null
  br i1 %4, label %10, label %5

5:                                                ; preds = %1
  %6 = load ptr, ptr %2, align 8, !tbaa !11
  %7 = getelementptr inbounds nuw %struct.ossl_param_st, ptr %6, i32 0, i32 0
  %8 = load ptr, ptr %7, align 8, !tbaa !58
  %9 = icmp eq ptr %8, null
  br label %10

10:                                               ; preds = %5, %1
  %11 = phi i1 [ true, %1 ], [ %9, %5 ]
  %12 = zext i1 %11 to i32
  ret i32 %12
}

; Function Attrs: nounwind uwtable
define internal i32 @dh_gen_common_set_params(ptr noundef %0, ptr noundef %1) #0 {
  %3 = alloca i32, align 4
  %4 = alloca ptr, align 8
  %5 = alloca ptr, align 8
  %6 = alloca ptr, align 8
  %7 = alloca ptr, align 8
  %8 = alloca i32, align 4
  %9 = alloca i32, align 4
  %10 = alloca ptr, align 8
  store ptr %0, ptr %4, align 8, !tbaa !3
  store ptr %1, ptr %5, align 8, !tbaa !11
  call void @llvm.lifetime.start.p0(i64 8, ptr %6) #8
  %11 = load ptr, ptr %4, align 8, !tbaa !3
  store ptr %11, ptr %6, align 8, !tbaa !13
  call void @llvm.lifetime.start.p0(i64 8, ptr %7) #8
  call void @llvm.lifetime.start.p0(i64 4, ptr %8) #8
  store i32 -1, ptr %8, align 4, !tbaa !9
  %12 = load ptr, ptr %6, align 8, !tbaa !13
  %13 = icmp eq ptr %12, null
  br i1 %13, label %14, label %15

14:                                               ; preds = %2
  store i32 0, ptr %3, align 4
  store i32 1, ptr %9, align 4
  br label %104

15:                                               ; preds = %2
  %16 = load ptr, ptr %5, align 8, !tbaa !11
  %17 = call i32 @ossl_param_is_empty(ptr noundef %16)
  %18 = icmp ne i32 %17, 0
  br i1 %18, label %19, label %20

19:                                               ; preds = %15
  store i32 1, ptr %3, align 4
  store i32 1, ptr %9, align 4
  br label %104

20:                                               ; preds = %15
  %21 = load ptr, ptr %5, align 8, !tbaa !11
  %22 = call ptr @OSSL_PARAM_locate_const(ptr noundef %21, ptr noundef @.str.9)
  store ptr %22, ptr %7, align 8, !tbaa !11
  %23 = load ptr, ptr %7, align 8, !tbaa !11
  %24 = icmp ne ptr %23, null
  br i1 %24, label %25, label %48

25:                                               ; preds = %20
  %26 = load ptr, ptr %7, align 8, !tbaa !11
  %27 = getelementptr inbounds nuw %struct.ossl_param_st, ptr %26, i32 0, i32 1
  %28 = load i32, ptr %27, align 8, !tbaa !47
  %29 = icmp ne i32 %28, 4
  br i1 %29, label %39, label %30

30:                                               ; preds = %25
  %31 = load ptr, ptr %7, align 8, !tbaa !11
  %32 = getelementptr inbounds nuw %struct.ossl_param_st, ptr %31, i32 0, i32 2
  %33 = load ptr, ptr %32, align 8, !tbaa !51
  %34 = load ptr, ptr %6, align 8, !tbaa !13
  %35 = getelementptr inbounds nuw %struct.dh_gen_ctx, ptr %34, i32 0, i32 18
  %36 = load i32, ptr %35, align 8, !tbaa !45
  %37 = call i32 @dh_gen_type_name2id_w_default(ptr noundef %33, i32 noundef %36)
  store i32 %37, ptr %8, align 4, !tbaa !9
  %38 = icmp eq i32 %37, -1
  br i1 %38, label %39, label %40

39:                                               ; preds = %30, %25
  call void @ERR_new()
  call void @ERR_set_debug(ptr noundef @.str, i32 noundef 542, ptr noundef @__func__.dh_gen_common_set_params)
  call void (i32, i32, ptr, ...) @ERR_set_error(i32 noundef 57, i32 noundef 524550, ptr noundef null)
  store i32 0, ptr %3, align 4
  store i32 1, ptr %9, align 4
  br label %104

40:                                               ; preds = %30
  %41 = load i32, ptr %8, align 4, !tbaa !9
  %42 = icmp ne i32 %41, -1
  br i1 %42, label %43, label %47

43:                                               ; preds = %40
  %44 = load i32, ptr %8, align 4, !tbaa !9
  %45 = load ptr, ptr %6, align 8, !tbaa !13
  %46 = getelementptr inbounds nuw %struct.dh_gen_ctx, ptr %45, i32 0, i32 9
  store i32 %44, ptr %46, align 4, !tbaa !24
  br label %47

47:                                               ; preds = %43, %40
  br label %48

48:                                               ; preds = %47, %20
  %49 = load ptr, ptr %5, align 8, !tbaa !11
  %50 = call ptr @OSSL_PARAM_locate_const(ptr noundef %49, ptr noundef @.str.10)
  store ptr %50, ptr %7, align 8, !tbaa !11
  %51 = load ptr, ptr %7, align 8, !tbaa !11
  %52 = icmp ne ptr %51, null
  br i1 %52, label %53, label %80

53:                                               ; preds = %48
  call void @llvm.lifetime.start.p0(i64 8, ptr %10) #8
  store ptr null, ptr %10, align 8, !tbaa !56
  %54 = load ptr, ptr %7, align 8, !tbaa !11
  %55 = getelementptr inbounds nuw %struct.ossl_param_st, ptr %54, i32 0, i32 1
  %56 = load i32, ptr %55, align 8, !tbaa !47
  %57 = icmp ne i32 %56, 4
  br i1 %57, label %75, label %58

58:                                               ; preds = %53
  %59 = load ptr, ptr %7, align 8, !tbaa !11
  %60 = getelementptr inbounds nuw %struct.ossl_param_st, ptr %59, i32 0, i32 2
  %61 = load ptr, ptr %60, align 8, !tbaa !51
  %62 = icmp eq ptr %61, null
  br i1 %62, label %75, label %63

63:                                               ; preds = %58
  %64 = load ptr, ptr %7, align 8, !tbaa !11
  %65 = getelementptr inbounds nuw %struct.ossl_param_st, ptr %64, i32 0, i32 2
  %66 = load ptr, ptr %65, align 8, !tbaa !51
  %67 = call ptr @ossl_ffc_name_to_dh_named_group(ptr noundef %66)
  store ptr %67, ptr %10, align 8, !tbaa !56
  %68 = icmp eq ptr %67, null
  br i1 %68, label %75, label %69

69:                                               ; preds = %63
  %70 = load ptr, ptr %10, align 8, !tbaa !56
  %71 = call i32 @ossl_ffc_named_group_get_uid(ptr noundef %70)
  %72 = load ptr, ptr %6, align 8, !tbaa !13
  %73 = getelementptr inbounds nuw %struct.dh_gen_ctx, ptr %72, i32 0, i32 3
  store i32 %71, ptr %73, align 4, !tbaa !23
  %74 = icmp eq i32 %71, 0
  br i1 %74, label %75, label %76

75:                                               ; preds = %69, %63, %58, %53
  call void @ERR_new()
  call void @ERR_set_debug(ptr noundef @.str, i32 noundef 557, ptr noundef @__func__.dh_gen_common_set_params)
  call void (i32, i32, ptr, ...) @ERR_set_error(i32 noundef 57, i32 noundef 524550, ptr noundef null)
  store i32 0, ptr %3, align 4
  store i32 1, ptr %9, align 4
  br label %77

76:                                               ; preds = %69
  store i32 0, ptr %9, align 4
  br label %77

77:                                               ; preds = %76, %75
  call void @llvm.lifetime.end.p0(i64 8, ptr %10) #8
  %78 = load i32, ptr %9, align 4
  switch i32 %78, label %104 [
    i32 0, label %79
  ]

79:                                               ; preds = %77
  br label %80

80:                                               ; preds = %79, %48
  %81 = load ptr, ptr %5, align 8, !tbaa !11
  %82 = call ptr @OSSL_PARAM_locate_const(ptr noundef %81, ptr noundef @.str.11)
  store ptr %82, ptr %7, align 8, !tbaa !11
  %83 = icmp ne ptr %82, null
  br i1 %83, label %84, label %91

84:                                               ; preds = %80
  %85 = load ptr, ptr %7, align 8, !tbaa !11
  %86 = load ptr, ptr %6, align 8, !tbaa !13
  %87 = getelementptr inbounds nuw %struct.dh_gen_ctx, ptr %86, i32 0, i32 4
  %88 = call i32 @OSSL_PARAM_get_size_t(ptr noundef %85, ptr noundef %87)
  %89 = icmp ne i32 %88, 0
  br i1 %89, label %91, label %90

90:                                               ; preds = %84
  store i32 0, ptr %3, align 4
  store i32 1, ptr %9, align 4
  br label %104

91:                                               ; preds = %84, %80
  %92 = load ptr, ptr %5, align 8, !tbaa !11
  %93 = call ptr @OSSL_PARAM_locate_const(ptr noundef %92, ptr noundef @.str.12)
  store ptr %93, ptr %7, align 8, !tbaa !11
  %94 = load ptr, ptr %7, align 8, !tbaa !11
  %95 = icmp ne ptr %94, null
  br i1 %95, label %96, label %103

96:                                               ; preds = %91
  %97 = load ptr, ptr %7, align 8, !tbaa !11
  %98 = load ptr, ptr %6, align 8, !tbaa !13
  %99 = getelementptr inbounds nuw %struct.dh_gen_ctx, ptr %98, i32 0, i32 13
  %100 = call i32 @OSSL_PARAM_get_int(ptr noundef %97, ptr noundef %99)
  %101 = icmp ne i32 %100, 0
  br i1 %101, label %103, label %102

102:                                              ; preds = %96
  store i32 0, ptr %3, align 4
  store i32 1, ptr %9, align 4
  br label %104

103:                                              ; preds = %96, %91
  store i32 1, ptr %3, align 4
  store i32 1, ptr %9, align 4
  br label %104

104:                                              ; preds = %103, %102, %90, %77, %39, %19, %14
  call void @llvm.lifetime.end.p0(i64 4, ptr %8) #8
  call void @llvm.lifetime.end.p0(i64 8, ptr %7) #8
  call void @llvm.lifetime.end.p0(i64 8, ptr %6) #8
  %105 = load i32, ptr %3, align 4
  ret i32 %105
}