; Function Attrs: nounwind uwtable
define internal fastcc range(i32 0, 2) i32 @dh_gen_common_set_params(ptr noundef %0, ptr noundef %1) unnamed_addr #0 {
  %3 = icmp eq ptr %0, null
  br i1 %3, label %ossl_param_is_empty.exit.thread, label %4

4:                                                ; preds = %2
  %5 = icmp eq ptr %1, null
  br i1 %5, label %ossl_param_is_empty.exit.thread, label %ossl_param_is_empty.exit

ossl_param_is_empty.exit:                         ; preds = %4
  %6 = load ptr, ptr %1, align 8, !tbaa !47
  %.not = icmp eq ptr %6, null
  br i1 %.not, label %ossl_param_is_empty.exit.thread, label %7

7:                                                ; preds = %ossl_param_is_empty.exit
  %8 = tail call ptr @OSSL_PARAM_locate_const(ptr noundef nonnull %1, ptr noundef nonnull @.str.9) #8
  %.not35 = icmp eq ptr %8, null
  br i1 %.not35, label %25, label %9

9:                                                ; preds = %7
  %10 = getelementptr inbounds nuw i8, ptr %8, i64 8
  %11 = load i32, ptr %10, align 8, !tbaa !38
  %.not36 = icmp eq i32 %11, 4
  br i1 %.not36, label %12, label %22

12:                                               ; preds = %9
  %13 = getelementptr inbounds nuw i8, ptr %8, i64 16
  %14 = load ptr, ptr %13, align 8, !tbaa !42
  %15 = getelementptr inbounds nuw i8, ptr %0, i64 112
  %16 = load i32, ptr %15, align 8, !tbaa !22
  %17 = tail call i32 @strcmp(ptr noundef nonnull dereferenceable(1) %14, ptr noundef nonnull dereferenceable(8) @.str.13) #9
  %18 = icmp eq i32 %17, 0
  br i1 %18, label %dh_gen_type_name2id_w_default.exit.thread, label %dh_gen_type_name2id_w_default.exit

dh_gen_type_name2id_w_default.exit.thread:        ; preds = %12
  %19 = icmp eq i32 %16, 4096
  %..i = zext i1 %19 to i32
  br label %23

dh_gen_type_name2id_w_default.exit:               ; preds = %12
  %20 = tail call i32 @ossl_dh_gen_type_name2id(ptr noundef nonnull %14, i32 noundef %16) #8
  %21 = icmp eq i32 %20, -1
  br i1 %21, label %22, label %23

22:                                               ; preds = %dh_gen_type_name2id_w_default.exit, %9
  tail call void @ERR_new() #8
  tail call void @ERR_set_debug(ptr noundef nonnull @.str, i32 noundef 542, ptr noundef nonnull @__func__.dh_gen_common_set_params) #8
  tail call void (i32, i32, ptr, ...) @ERR_set_error(i32 noundef 57, i32 noundef 524550, ptr noundef null) #8
  br label %ossl_param_is_empty.exit.thread

23:                                               ; preds = %dh_gen_type_name2id_w_default.exit.thread, %dh_gen_type_name2id_w_default.exit
  %.0.i45 = phi i32 [ %..i, %dh_gen_type_name2id_w_default.exit.thread ], [ %20, %dh_gen_type_name2id_w_default.exit ]
  %24 = getelementptr inbounds nuw i8, ptr %0, i64 60
  store i32 %.0.i45, ptr %24, align 4, !tbaa !17
  br label %25

25:                                               ; preds = %23, %7
  %26 = tail call ptr @OSSL_PARAM_locate_const(ptr noundef nonnull %1, ptr noundef nonnull @.str.10) #8
  %.not37 = icmp eq ptr %26, null
  br i1 %.not37, label %41, label %27

27:                                               ; preds = %25
  %28 = getelementptr inbounds nuw i8, ptr %26, i64 8
  %29 = load i32, ptr %28, align 8, !tbaa !38
  %.not38 = icmp eq i32 %29, 4
  br i1 %.not38, label %30, label %.critedge

30:                                               ; preds = %27
  %31 = getelementptr inbounds nuw i8, ptr %26, i64 16
  %32 = load ptr, ptr %31, align 8, !tbaa !42
  %33 = icmp eq ptr %32, null
  br i1 %33, label %.critedge, label %34

34:                                               ; preds = %30
  %35 = tail call ptr @ossl_ffc_name_to_dh_named_group(ptr noundef nonnull %32) #8
  %36 = icmp eq ptr %35, null
  br i1 %36, label %.critedge, label %37

37:                                               ; preds = %34
  %38 = tail call i32 @ossl_ffc_named_group_get_uid(ptr noundef nonnull %35) #8
  %39 = getelementptr inbounds nuw i8, ptr %0, i64 20
  store i32 %38, ptr %39, align 4, !tbaa !24
  %40 = icmp eq i32 %38, 0
  br i1 %40, label %.critedge, label %41

.critedge:                                        ; preds = %37, %34, %30, %27
  tail call void @ERR_new() #8
  tail call void @ERR_set_debug(ptr noundef nonnull @.str, i32 noundef 557, ptr noundef nonnull @__func__.dh_gen_common_set_params) #8
  tail call void (i32, i32, ptr, ...) @ERR_set_error(i32 noundef 57, i32 noundef 524550, ptr noundef null) #8
  br label %ossl_param_is_empty.exit.thread

41:                                               ; preds = %37, %25
  %42 = tail call ptr @OSSL_PARAM_locate_const(ptr noundef nonnull %1, ptr noundef nonnull @.str.11) #8
  %.not39 = icmp eq ptr %42, null
  br i1 %.not39, label %46, label %43

43:                                               ; preds = %41
  %44 = getelementptr inbounds nuw i8, ptr %0, i64 24
  %45 = tail call i32 @OSSL_PARAM_get_size_t(ptr noundef nonnull %42, ptr noundef nonnull %44) #8
  %.not40 = icmp eq i32 %45, 0
  br i1 %.not40, label %ossl_param_is_empty.exit.thread, label %46

46:                                               ; preds = %43, %41
  %47 = tail call ptr @OSSL_PARAM_locate_const(ptr noundef nonnull %1, ptr noundef nonnull @.str.12) #8
  %.not41 = icmp eq ptr %47, null
  br i1 %.not41, label %51, label %48

48:                                               ; preds = %46
  %49 = getelementptr inbounds nuw i8, ptr %0, i64 76
  %50 = tail call i32 @OSSL_PARAM_get_int(ptr noundef nonnull %47, ptr noundef nonnull %49) #8
  %.not42 = icmp eq i32 %50, 0
  br i1 %.not42, label %ossl_param_is_empty.exit.thread, label %51

51:                                               ; preds = %48, %46
  br label %ossl_param_is_empty.exit.thread

ossl_param_is_empty.exit.thread:                  ; preds = %4, %48, %43, %.critedge, %ossl_param_is_empty.exit, %2, %51, %22
  %.026 = phi i32 [ 0, %22 ], [ 1, %51 ], [ 0, %2 ], [ 1, %ossl_param_is_empty.exit ], [ 0, %.critedge ], [ 0, %43 ], [ 0, %48 ], [ 1, %4 ]
  ret i32 %.026
}